target datalayout = "e-m:e-p270:32:32-p271:32:32-p272:64:64-i64:64-i128:128-f80:128-n8:16:32:64-S128"
target triple = "x86_64-pc-linux-gnu"

%"class.std::basic_ostream" = type { ptr, %"class.std::basic_ios" }
%"class.std::basic_ios" = type { %"class.std::ios_base", ptr, i8, i8, ptr, ptr, ptr, ptr }
%"class.std::ios_base" = type { ptr, i64, i64, i32, i32, i32, ptr, %"struct.std::ios_base::_Words", [8 x %"struct.std::ios_base::_Words"], i32, ptr, %"class.std::locale" }
%"struct.std::ios_base::_Words" = type { ptr, i64 }
%"class.std::locale" = type { ptr }
%class.cache_sim_t = type <{ ptr, %class.lfsr_t, [4 x i8], ptr, i64, i64, i64, i64, ptr, i64, i64, i64, i64, i64, i64, i64, %"class.std::__cxx11::basic_string", i8, [7 x i8] }>
%class.lfsr_t = type { i32 }
%"class.std::__cxx11::basic_string" = type { %"struct.std::__cxx11::basic_string<char>::_Alloc_hider", i64, %union.anon }
%"struct.std::__cxx11::basic_string<char>::_Alloc_hider" = type { ptr }
%union.anon = type { i64, [8 x i8] }

@_ZSt4cerr = external global %"class.std::basic_ostream", align 8
@.str.14 = private unnamed_addr constant [41 x i8] c"Cache configurations must be of the form\00", align 1
@.str.15 = private unnamed_addr constant [22 x i8] c"  sets:ways:blocksize\00", align 1
@.str.16 = private unnamed_addr constant [60 x i8] c"where sets, ways, and blocksize are positive integers, with\00", align 1
@.str.17 = private unnamed_addr constant [64 x i8] c"sets and blocksize both powers of two and blocksize at least 8.\00", align 1

; Function Attrs: mustprogress uwtable
define internal void @_ZL4helpv() #4 {
  %1 = call noundef nonnull align 8 dereferenceable(8) ptr @_ZStlsISt11char_traitsIcEERSt13basic_ostreamIcT_ES5_PKc(ptr noundef nonnull align 8 dereferenceable(8) @_ZSt4cerr, ptr noundef @.str.14)
  %2 = call noundef nonnull align 8 dereferenceable(8) ptr @_ZNSolsEPFRSoS_E(ptr noundef nonnull align 8 dereferenceable(8) %1, ptr noundef @_ZSt4endlIcSt11char_traitsIcEERSt13basic_ostreamIT_T0_ES6_)
  %3 = call noundef nonnull align 8 dereferenceable(8) ptr @_ZStlsISt11char_traitsIcEERSt13basic_ostreamIcT_ES5_PKc(ptr noundef nonnull align 8 dereferenceable(8) @_ZSt4cerr, ptr noundef @.str.15)
  %4 = call noundef nonnull align 8 dereferenceable(8) ptr @_ZNSolsEPFRSoS_E(ptr noundef nonnull align 8 dereferenceable(8) %3, ptr noundef @_ZSt4endlIcSt11char_traitsIcEERSt13basic_ostreamIT_T0_ES6_)
  %5 = call noundef nonnull align 8 dereferenceable(8) ptr @_ZStlsISt11char_traitsIcEERSt13basic_ostreamIcT_ES5_PKc(ptr noundef nonnull align 8 dereferenceable(8) @_ZSt4cerr, ptr noundef @.str.16)
  %6 = call noundef nonnull align 8 dereferenceable(8) ptr @_ZNSolsEPFRSoS_E(ptr noundef nonnull align 8 dereferenceable(8) %5, ptr noundef @_ZSt4endlIcSt11char_traitsIcEERSt13basic_ostreamIT_T0_ES6_)
  %7 = call noundef nonnull align 8 dereferenceable(8) ptr @_ZStlsISt11char_traitsIcEERSt13basic_ostreamIcT_ES5_PKc(ptr noundef nonnull align 8 dereferenceable(8) @_ZSt4cerr, ptr noundef @.str.17)
  %8 = call noundef nonnull align 8 dereferenceable(8) ptr @_ZNSolsEPFRSoS_E(ptr noundef nonnull align 8 dereferenceable(8) %7, ptr noundef @_ZSt4endlIcSt11char_traitsIcEERSt13basic_ostreamIT_T0_ES6_)
  call void @exit(i32 noundef 1) #17
  unreachable
}

; Function Attrs: mustprogress uwtable
define void @_ZN11cache_sim_t4initEv(ptr noundef nonnull align 8 dereferenceable(153) %0) #4 align 2 {
  %2 = alloca ptr, align 8
  %3 = alloca i64, align 8
  store ptr %0, ptr %2, align 8
  %4 = load ptr, ptr %2, align 8
  %5 = getelementptr inbounds %class.cache_sim_t, ptr %4, i32 0, i32 4
  %6 = load i64, ptr %5, align 8
  %7 = icmp eq i64 %6, 0
  br i1 %7, label %16, label %8

8:                                                ; preds = %1
  %9 = getelementptr inbounds %class.cache_sim_t, ptr %4, i32 0, i32 4
  %10 = load i64, ptr %9, align 8
  %11 = getelementptr inbounds %class.cache_sim_t, ptr %4, i32 0, i32 4
  %12 = load i64, ptr %11, align 8
  %13 = sub i64 %12, 1
  %14 = and i64 %10, %13
  %15 = icmp ne i64 %14, 0
  br i1 %15, label %16, label %17

16:                                               ; preds = %8, %1
  call void @_ZL4helpv()
  br label %17

17:                                               ; preds = %16, %8
  %18 = getelementptr inbounds %class.cache_sim_t, ptr %4, i32 0, i32 6
  %19 = load i64, ptr %18, align 8
  %20 = icmp ult i64 %19, 8
  br i1 %20, label %29, label %21

21:                                               ; preds = %17
  %22 = getelementptr inbounds %class.cache_sim_t, ptr %4, i32 0, i32 6
  %23 = load i64, ptr %22, align 8
  %24 = getelementptr inbounds %class.cache_sim_t, ptr %4, i32 0, i32 6
  %25 = load i64, ptr %24, align 8
  %26 = sub i64 %25, 1
  %27 = and i64 %23, %26
  %28 = icmp ne i64 %27, 0
  br i1 %28, label %29, label %30

29:                                               ; preds = %21, %17
  call void @_ZL4helpv()
  br label %30

30:                                               ; preds = %29, %21
  %31 = getelementptr inbounds %class.cache_sim_t, ptr %4, i32 0, i32 7
  store i64 0, ptr %31, align 8
  %32 = getelementptr inbounds %class.cache_sim_t, ptr %4, i32 0, i32 6
  %33 = load i64, ptr %32, align 8
  store i64 %33, ptr %3, align 8
  br label %34

34:                                               ; preds = %41, %30
  %35 = load i64, ptr %3, align 8
  %36 = icmp ugt i64 %35, 1
  br i1 %36, label %37, label %44

37:                                               ; preds = %34
  %38 = getelementptr inbounds %class.cache_sim_t, ptr %4, i32 0, i32 7
  %39 = load i64, ptr %38, align 8
  %40 = add i64 %39, 1
  store i64 %40, ptr %38, align 8
  br label %41

41:                                               ; preds = %37
  %42 = load i64, ptr %3, align 8
  %43 = lshr i64 %42, 1
  store i64 %43, ptr %3, align 8
  br label %34, !llvm.loop !4

44:                                               ; preds = %34
  %45 = getelementptr inbounds %class.cache_sim_t, ptr %4, i32 0, i32 4
  %46 = load i64, ptr %45, align 8
  %47 = getelementptr inbounds %class.cache_sim_t, ptr %4, i32 0, i32 5
  %48 = load i64, ptr %47, align 8
  %49 = mul i64 %46, %48
  %50 = call { i64, i1 } @llvm.umul.with.overflow.i64(i64 %49, i64 8)
  %51 = extractvalue { i64, i1 } %50, 1
  %52 = extractvalue { i64, i1 } %50, 0
  %53 = select i1 %51, i64 -1, i64 %52
  %54 = call noalias noundef nonnull ptr @_Znam(i64 noundef %53) #16
  call void @llvm.memset.p0.i64(ptr align 8 %54, i8 0, i64 %53, i1 false)
  %55 = getelementptr inbounds %class.cache_sim_t, ptr %4, i32 0, i32 8
  store ptr %54, ptr %55, align 8
  %56 = getelementptr inbounds %class.cache_sim_t, ptr %4, i32 0, i32 9
  store i64 0, ptr %56, align 8
  %57 = getelementptr inbounds %class.cache_sim_t, ptr %4, i32 0, i32 10
  store i64 0, ptr %57, align 8
  %58 = getelementptr inbounds %class.cache_sim_t, ptr %4, i32 0, i32 11
  store i64 0, ptr %58, align 8
  %59 = getelementptr inbounds %class.cache_sim_t, ptr %4, i32 0, i32 12
  store i64 0, ptr %59, align 8
  %60 = getelementptr inbounds %class.cache_sim_t, ptr %4, i32 0, i32 13
  store i64 0, ptr %60, align 8
  %61 = getelementptr inbounds %class.cache_sim_t, ptr %4, i32 0, i32 14
  store i64 0, ptr %61, align 8
  %62 = getelementptr inbounds %class.cache_sim_t, ptr %4, i32 0, i32 15
  store i64 0, ptr %62, align 8
  %63 = getelementptr inbounds %class.cache_sim_t, ptr %4, i32 0, i32 3
  store ptr null, ptr %63, align 8
  ret void
}